target datalayout = "e-m:e-p270:32:32-p271:32:32-p272:64:64-i64:64-i128:128-f80:128-n8:16:32:64-S128"
target triple = "x86_64-pc-linux-gnu"

%struct.CVodeMemRec = type { ptr, double, ptr, ptr, i32, i32, double, double, ptr, i32, i32, ptr, ptr, i32, i32, ptr, i32, i32, double, double, ptr, i32, i32, i32, i32, ptr, ptr, ptr, i32, i32, ptr, ptr, ptr, i32, double, i32, i32, double, ptr, ptr, ptr, i32, ptr, ptr, i32, i32, i32, double, ptr, ptr, ptr, [13 x ptr], ptr, ptr, ptr, ptr, ptr, ptr, ptr, ptr, ptr, [13 x ptr], ptr, ptr, ptr, ptr, [13 x ptr], ptr, ptr, ptr, ptr, ptr, i32, [13 x ptr], ptr, ptr, ptr, ptr, ptr, i32, i32, double, i32, i32, i32, i32, i32, double, double, double, double, double, double, double, double, [14 x double], [6 x double], [13 x double], double, double, double, double, double, double, double, double, i32, double, double, i32, double, double, ptr, i32, i64, i32, i32, i32, double, double, double, double, double, double, double, double, double, double, double, double, i64, i32, i64, i64, i64, i64, i64, i64, i64, i64, i64, ptr, i64, i64, ptr, i64, i64, ptr, i64, i64, i64, i64, i64, i64, i32, double, double, double, i64, i64, i64, i64, i64, i64, ptr, i32, ptr, i32, ptr, i32, ptr, i32, i32, i64, i32, ptr, i32, ptr, ptr, ptr, ptr, ptr, ptr, i32, i32, ptr, ptr, ptr, ptr, ptr, i64, double, i32, i32, i64, double, double, double, i32, i32, double, i32, i32, i32, i32, i32, i32, i32, i32, i32, i32, i32, i32, i32, i32, i32, i32, ptr, i64, i32, [6 x [4 x double]], i32, i64, ptr, i32, ptr, ptr, double, double, double, ptr, ptr, ptr, double, double, i32, i32, i64, ptr, i32, ptr, i32, i32, [13 x double], ptr, ptr, ptr, i32, ptr, i32 }
%struct._generic_N_Vector = type { ptr, ptr, ptr }
%struct._N_VectorContent_SensWrapper = type { ptr, i32, i32 }

@.str = private unnamed_addr constant [123 x i8] c"generated/home/dtcxzyw/WorkSpace/Projects/compilers/llvm-opt-benchmark/bench/sundials/sundials/src/cvodes/cvodes_nls_stg.c\00", align 1
@.str.1 = private unnamed_addr constant [26 x i8] c"cvode_mem = NULL illegal.\00", align 1
@__func__.cvNlsResidualSensStg = private unnamed_addr constant [21 x i8] c"cvNlsResidualSensStg\00", align 1

; Function Attrs: nounwind uwtable
define internal i32 @cvNlsResidualSensStg(ptr noundef %0, ptr noundef %1, ptr noundef %2) #0 {
  %4 = alloca i32, align 4
  %5 = alloca ptr, align 8
  %6 = alloca ptr, align 8
  %7 = alloca ptr, align 8
  %8 = alloca ptr, align 8
  %9 = alloca i32, align 4
  %10 = alloca ptr, align 8
  %11 = alloca ptr, align 8
  %12 = alloca [3 x double], align 16
  %13 = alloca [3 x ptr], align 16
  %14 = alloca i32, align 4
  store ptr %0, ptr %5, align 8, !tbaa !42
  store ptr %1, ptr %6, align 8, !tbaa !42
  store ptr %2, ptr %7, align 8, !tbaa !3
  call void @llvm.lifetime.start.p0(i64 8, ptr %8) #3
  call void @llvm.lifetime.start.p0(i64 4, ptr %9) #3
  call void @llvm.lifetime.start.p0(i64 8, ptr %10) #3
  call void @llvm.lifetime.start.p0(i64 8, ptr %11) #3
  call void @llvm.lifetime.start.p0(i64 24, ptr %12) #3
  call void @llvm.lifetime.start.p0(i64 24, ptr %13) #3
  %15 = load ptr, ptr %7, align 8, !tbaa !3
  %16 = icmp eq ptr %15, null
  br i1 %16, label %17, label %18

17:                                               ; preds = %3
  call void (ptr, i32, i32, ptr, ptr, ptr, ...) @cvProcessError(ptr noundef null, i32 noundef -21, i32 noundef 387, ptr noundef @__func__.cvNlsResidualSensStg, ptr noundef @.str, ptr noundef @.str.1)
  store i32 -21, ptr %4, align 4
  store i32 1, ptr %14, align 4
  br label %109

18:                                               ; preds = %3
  %19 = load ptr, ptr %7, align 8, !tbaa !3
  store ptr %19, ptr %8, align 8, !tbaa !9
  %20 = load ptr, ptr %5, align 8, !tbaa !42
  %21 = getelementptr inbounds nuw %struct._generic_N_Vector, ptr %20, i32 0, i32 0
  %22 = load ptr, ptr %21, align 8, !tbaa !43
  %23 = getelementptr inbounds nuw %struct._N_VectorContent_SensWrapper, ptr %22, i32 0, i32 0
  %24 = load ptr, ptr %23, align 8, !tbaa !46
  store ptr %24, ptr %10, align 8, !tbaa !41
  %25 = load ptr, ptr %6, align 8, !tbaa !42
  %26 = getelementptr inbounds nuw %struct._generic_N_Vector, ptr %25, i32 0, i32 0
  %27 = load ptr, ptr %26, align 8, !tbaa !43
  %28 = getelementptr inbounds nuw %struct._N_VectorContent_SensWrapper, ptr %27, i32 0, i32 0
  %29 = load ptr, ptr %28, align 8, !tbaa !46
  store ptr %29, ptr %11, align 8, !tbaa !41
  %30 = load ptr, ptr %8, align 8, !tbaa !9
  %31 = getelementptr inbounds nuw %struct.CVodeMemRec, ptr %30, i32 0, i32 23
  %32 = load i32, ptr %31, align 8, !tbaa !36
  %33 = load ptr, ptr %8, align 8, !tbaa !9
  %34 = getelementptr inbounds nuw %struct.CVodeMemRec, ptr %33, i32 0, i32 66
  %35 = getelementptr inbounds [13 x ptr], ptr %34, i64 0, i64 0
  %36 = load ptr, ptr %35, align 8, !tbaa !41
  %37 = load ptr, ptr %10, align 8, !tbaa !41
  %38 = load ptr, ptr %8, align 8, !tbaa !9
  %39 = getelementptr inbounds nuw %struct.CVodeMemRec, ptr %38, i32 0, i32 68
  %40 = load ptr, ptr %39, align 8, !tbaa !51
  %41 = call i32 @N_VLinearSumVectorArray(i32 noundef %32, double noundef 1.000000e+00, ptr noundef %36, double noundef 1.000000e+00, ptr noundef %37, ptr noundef %40)
  store i32 %41, ptr %9, align 4, !tbaa !34
  %42 = load i32, ptr %9, align 4, !tbaa !34
  %43 = icmp ne i32 %42, 0
  br i1 %43, label %44, label %45

44:                                               ; preds = %18
  store i32 -28, ptr %4, align 4
  store i32 1, ptr %14, align 4
  br label %109

45:                                               ; preds = %18
  %46 = load ptr, ptr %8, align 8, !tbaa !9
  %47 = load ptr, ptr %8, align 8, !tbaa !9
  %48 = getelementptr inbounds nuw %struct.CVodeMemRec, ptr %47, i32 0, i32 93
  %49 = load double, ptr %48, align 8, !tbaa !52
  %50 = load ptr, ptr %8, align 8, !tbaa !9
  %51 = getelementptr inbounds nuw %struct.CVodeMemRec, ptr %50, i32 0, i32 53
  %52 = load ptr, ptr %51, align 8, !tbaa !53
  %53 = load ptr, ptr %8, align 8, !tbaa !9
  %54 = getelementptr inbounds nuw %struct.CVodeMemRec, ptr %53, i32 0, i32 56
  %55 = load ptr, ptr %54, align 8, !tbaa !54
  %56 = load ptr, ptr %8, align 8, !tbaa !9
  %57 = getelementptr inbounds nuw %struct.CVodeMemRec, ptr %56, i32 0, i32 68
  %58 = load ptr, ptr %57, align 8, !tbaa !51
  %59 = load ptr, ptr %8, align 8, !tbaa !9
  %60 = getelementptr inbounds nuw %struct.CVodeMemRec, ptr %59, i32 0, i32 71
  %61 = load ptr, ptr %60, align 8, !tbaa !55
  %62 = load ptr, ptr %8, align 8, !tbaa !9
  %63 = getelementptr inbounds nuw %struct.CVodeMemRec, ptr %62, i32 0, i32 57
  %64 = load ptr, ptr %63, align 8, !tbaa !56
  %65 = load ptr, ptr %8, align 8, !tbaa !9
  %66 = getelementptr inbounds nuw %struct.CVodeMemRec, ptr %65, i32 0, i32 58
  %67 = load ptr, ptr %66, align 8, !tbaa !57
  %68 = call i32 @cvSensRhsWrapper(ptr noundef %46, double noundef %49, ptr noundef %52, ptr noundef %55, ptr noundef %58, ptr noundef %61, ptr noundef %64, ptr noundef %67)
  store i32 %68, ptr %9, align 4, !tbaa !34
  %69 = load i32, ptr %9, align 4, !tbaa !34
  %70 = icmp slt i32 %69, 0
  br i1 %70, label %71, label %72

71:                                               ; preds = %45
  store i32 -41, ptr %4, align 4
  store i32 1, ptr %14, align 4
  br label %109

72:                                               ; preds = %45
  %73 = load i32, ptr %9, align 4, !tbaa !34
  %74 = icmp sgt i32 %73, 0
  br i1 %74, label %75, label %76

75:                                               ; preds = %72
  store i32 15, ptr %4, align 4
  store i32 1, ptr %14, align 4
  br label %109

76:                                               ; preds = %72
  %77 = load ptr, ptr %8, align 8, !tbaa !9
  %78 = getelementptr inbounds nuw %struct.CVodeMemRec, ptr %77, i32 0, i32 98
  %79 = load double, ptr %78, align 8, !tbaa !58
  %80 = getelementptr inbounds [3 x double], ptr %12, i64 0, i64 0
  store double %79, ptr %80, align 16, !tbaa !59
  %81 = load ptr, ptr %8, align 8, !tbaa !9
  %82 = getelementptr inbounds nuw %struct.CVodeMemRec, ptr %81, i32 0, i32 66
  %83 = getelementptr inbounds [13 x ptr], ptr %82, i64 0, i64 1
  %84 = load ptr, ptr %83, align 8, !tbaa !41
  %85 = getelementptr inbounds [3 x ptr], ptr %13, i64 0, i64 0
  store ptr %84, ptr %85, align 16, !tbaa !41
  %86 = getelementptr inbounds [3 x double], ptr %12, i64 0, i64 1
  store double 1.000000e+00, ptr %86, align 8, !tbaa !59
  %87 = load ptr, ptr %10, align 8, !tbaa !41
  %88 = getelementptr inbounds [3 x ptr], ptr %13, i64 0, i64 1
  store ptr %87, ptr %88, align 8, !tbaa !41
  %89 = load ptr, ptr %8, align 8, !tbaa !9
  %90 = getelementptr inbounds nuw %struct.CVodeMemRec, ptr %89, i32 0, i32 99
  %91 = load double, ptr %90, align 8, !tbaa !60
  %92 = fneg double %91
  %93 = getelementptr inbounds [3 x double], ptr %12, i64 0, i64 2
  store double %92, ptr %93, align 16, !tbaa !59
  %94 = load ptr, ptr %8, align 8, !tbaa !9
  %95 = getelementptr inbounds nuw %struct.CVodeMemRec, ptr %94, i32 0, i32 71
  %96 = load ptr, ptr %95, align 8, !tbaa !55
  %97 = getelementptr inbounds [3 x ptr], ptr %13, i64 0, i64 2
  store ptr %96, ptr %97, align 16, !tbaa !41
  %98 = load ptr, ptr %8, align 8, !tbaa !9
  %99 = getelementptr inbounds nuw %struct.CVodeMemRec, ptr %98, i32 0, i32 23
  %100 = load i32, ptr %99, align 8, !tbaa !36
  %101 = getelementptr inbounds [3 x double], ptr %12, i64 0, i64 0
  %102 = getelementptr inbounds [3 x ptr], ptr %13, i64 0, i64 0
  %103 = load ptr, ptr %11, align 8, !tbaa !41
  %104 = call i32 @N_VLinearCombinationVectorArray(i32 noundef %100, i32 noundef 3, ptr noundef %101, ptr noundef %102, ptr noundef %103)
  store i32 %104, ptr %9, align 4, !tbaa !34
  %105 = load i32, ptr %9, align 4, !tbaa !34
  %106 = icmp ne i32 %105, 0
  br i1 %106, label %107, label %108

107:                                              ; preds = %76
  store i32 -28, ptr %4, align 4
  store i32 1, ptr %14, align 4
  br label %109

108:                                              ; preds = %76
  store i32 0, ptr %4, align 4
  store i32 1, ptr %14, align 4
  br label %109

109:                                              ; preds = %108, %107, %75, %71, %44, %17
  call void @llvm.lifetime.end.p0(i64 24, ptr %13) #3
  call void @llvm.lifetime.end.p0(i64 24, ptr %12) #3
  call void @llvm.lifetime.end.p0(i64 8, ptr %11) #3
  call void @llvm.lifetime.end.p0(i64 8, ptr %10) #3
  call void @llvm.lifetime.end.p0(i64 4, ptr %9) #3
  call void @llvm.lifetime.end.p0(i64 8, ptr %8) #3
  %110 = load i32, ptr %4, align 4
  ret i32 %110
}