; Function Attrs: nounwind uwtable
define internal range(i32 -41, 16) i32 @cvNlsResidualSensStg(ptr noundef readonly captures(none) %0, ptr noundef readonly captures(none) %1, ptr noundef %2) #0 {
  %4 = alloca [3 x double], align 16
  %5 = alloca [3 x ptr], align 16
  call void @llvm.lifetime.start.p0(i64 24, ptr nonnull %4) #3
  call void @llvm.lifetime.start.p0(i64 24, ptr nonnull %5) #3
  %6 = icmp eq ptr %2, null
  br i1 %6, label %7, label %8

7:                                                ; preds = %3
  tail call void (ptr, i32, i32, ptr, ptr, ptr, ...) @cvProcessError(ptr noundef null, i32 noundef -21, i32 noundef 387, ptr noundef nonnull @__func__.cvNlsResidualSensStg, ptr noundef nonnull @.str, ptr noundef nonnull @.str.1) #3
  br label %52

8:                                                ; preds = %3
  %9 = load ptr, ptr %0, align 8, !tbaa !40
  %10 = load ptr, ptr %9, align 8, !tbaa !43
  %11 = load ptr, ptr %1, align 8, !tbaa !40
  %12 = load ptr, ptr %11, align 8, !tbaa !43
  %13 = getelementptr inbounds nuw i8, ptr %2, i64 144
  %14 = load i32, ptr %13, align 8, !tbaa !31
  %15 = getelementptr inbounds nuw i8, ptr %2, i64 648
  %16 = load ptr, ptr %15, align 8, !tbaa !36
  %17 = getelementptr inbounds nuw i8, ptr %2, i64 760
  %18 = load ptr, ptr %17, align 8, !tbaa !46
  %19 = tail call i32 @N_VLinearSumVectorArray(i32 noundef %14, double noundef 1.000000e+00, ptr noundef %16, double noundef 1.000000e+00, ptr noundef %10, ptr noundef %18) #3
  %.not = icmp eq i32 %19, 0
  br i1 %.not, label %20, label %52

20:                                               ; preds = %8
  %21 = getelementptr inbounds nuw i8, ptr %2, i64 1032
  %22 = load double, ptr %21, align 8, !tbaa !47
  %23 = getelementptr inbounds nuw i8, ptr %2, i64 448
  %24 = load ptr, ptr %23, align 8, !tbaa !48
  %25 = getelementptr inbounds nuw i8, ptr %2, i64 472
  %26 = load ptr, ptr %25, align 8, !tbaa !49
  %27 = load ptr, ptr %17, align 8, !tbaa !46
  %28 = getelementptr inbounds nuw i8, ptr %2, i64 784
  %29 = load ptr, ptr %28, align 8, !tbaa !50
  %30 = getelementptr inbounds nuw i8, ptr %2, i64 480
  %31 = load ptr, ptr %30, align 8, !tbaa !51
  %32 = getelementptr inbounds nuw i8, ptr %2, i64 488
  %33 = load ptr, ptr %32, align 8, !tbaa !52
  %34 = tail call i32 @cvSensRhsWrapper(ptr noundef nonnull %2, double noundef %22, ptr noundef %24, ptr noundef %26, ptr noundef %27, ptr noundef %29, ptr noundef %31, ptr noundef %33) #3
  %35 = icmp slt i32 %34, 0
  br i1 %35, label %52, label %36

36:                                               ; preds = %20
  %.not29 = icmp eq i32 %34, 0
  br i1 %.not29, label %37, label %52

37:                                               ; preds = %36
  %38 = getelementptr inbounds nuw i8, ptr %2, i64 1312
  %39 = load double, ptr %38, align 8, !tbaa !53
  store double %39, ptr %4, align 16, !tbaa !54
  %40 = getelementptr inbounds nuw i8, ptr %2, i64 656
  %41 = load ptr, ptr %40, align 8, !tbaa !36
  store ptr %41, ptr %5, align 16, !tbaa !36
  %42 = getelementptr inbounds nuw i8, ptr %4, i64 8
  store double 1.000000e+00, ptr %42, align 8, !tbaa !54
  %43 = getelementptr inbounds nuw i8, ptr %5, i64 8
  store ptr %10, ptr %43, align 8, !tbaa !36
  %44 = getelementptr inbounds nuw i8, ptr %2, i64 1320
  %45 = load double, ptr %44, align 8, !tbaa !55
  %46 = fneg double %45
  %47 = getelementptr inbounds nuw i8, ptr %4, i64 16
  store double %46, ptr %47, align 16, !tbaa !54
  %48 = load ptr, ptr %28, align 8, !tbaa !50
  %49 = getelementptr inbounds nuw i8, ptr %5, i64 16
  store ptr %48, ptr %49, align 16, !tbaa !36
  %50 = load i32, ptr %13, align 8, !tbaa !31
  %51 = call i32 @N_VLinearCombinationVectorArray(i32 noundef %50, i32 noundef 3, ptr noundef nonnull %4, ptr noundef nonnull %5, ptr noundef %12) #3
  %.not30 = icmp eq i32 %51, 0
  %. = select i1 %.not30, i32 0, i32 -28
  br label %52

52:                                               ; preds = %37, %36, %20, %8, %7
  %.0 = phi i32 [ -21, %7 ], [ -28, %8 ], [ -41, %20 ], [ 15, %36 ], [ %., %37 ]
  call void @llvm.lifetime.end.p0(i64 24, ptr nonnull %5) #3
  call void @llvm.lifetime.end.p0(i64 24, ptr nonnull %4) #3
  ret i32 %.0
}